target datalayout = "e-m:e-p270:32:32-p271:32:32-p272:64:64-i64:64-i128:128-f80:128-n8:16:32:64-S128"
target triple = "x86_64-pc-linux-gnu"

%struct.BTSpool = type { ptr, ptr, ptr, i8, i8 }
%struct.BufferUsage = type { i64, i64, i64, i64, i64, i64, i64, i64, i64, i64, %struct.instr_time, %struct.instr_time, %struct.instr_time, %struct.instr_time, %struct.instr_time, %struct.instr_time }
%struct.instr_time = type { i64 }
%struct.WalUsage = type { i64, i64, i64, i64 }
%struct.BTShared = type { i32, i32, i8, i8, i8, i32, i64, %struct.ConditionVariable, i8, i32, double, i8, double, i8 }
%struct.ConditionVariable = type { i8, %struct.proclist_head }
%struct.proclist_head = type { i32, i32 }

@debug_query_string = external global ptr, align 8
@maintenance_work_mem = external global i32, align 4
@ParallelWorkerNumber = external global i32, align 4

; Function Attrs: nounwind uwtable
define dso_local void @_bt_parallel_build_main(ptr noundef %0, ptr noundef %1) #0 {
  %3 = alloca ptr, align 8
  %4 = alloca ptr, align 8
  %5 = alloca ptr, align 8
  %6 = alloca ptr, align 8
  %7 = alloca ptr, align 8
  %8 = alloca ptr, align 8
  %9 = alloca ptr, align 8
  %10 = alloca ptr, align 8
  %11 = alloca ptr, align 8
  %12 = alloca ptr, align 8
  %13 = alloca i32, align 4
  %14 = alloca i32, align 4
  %15 = alloca ptr, align 8
  %16 = alloca ptr, align 8
  %17 = alloca i32, align 4
  store ptr %0, ptr %3, align 8
  store ptr %1, ptr %4, align 8
  call void @llvm.lifetime.start.p0(i64 8, ptr %5) #8
  call void @llvm.lifetime.start.p0(i64 8, ptr %6) #8
  call void @llvm.lifetime.start.p0(i64 8, ptr %7) #8
  call void @llvm.lifetime.start.p0(i64 8, ptr %8) #8
  call void @llvm.lifetime.start.p0(i64 8, ptr %9) #8
  call void @llvm.lifetime.start.p0(i64 8, ptr %10) #8
  call void @llvm.lifetime.start.p0(i64 8, ptr %11) #8
  call void @llvm.lifetime.start.p0(i64 8, ptr %12) #8
  call void @llvm.lifetime.start.p0(i64 4, ptr %13) #8
  call void @llvm.lifetime.start.p0(i64 4, ptr %14) #8
  call void @llvm.lifetime.start.p0(i64 8, ptr %15) #8
  call void @llvm.lifetime.start.p0(i64 8, ptr %16) #8
  call void @llvm.lifetime.start.p0(i64 4, ptr %17) #8
  %18 = load ptr, ptr %4, align 8
  %19 = call ptr @shm_toc_lookup(ptr noundef %18, i64 noundef -6917529027641081852, i1 noundef zeroext true)
  store ptr %19, ptr %5, align 8
  %20 = load ptr, ptr %5, align 8
  store ptr %20, ptr @debug_query_string, align 8
  %21 = load ptr, ptr @debug_query_string, align 8
  call void @pgstat_report_activity(i32 noundef 2, ptr noundef %21)
  %22 = load ptr, ptr %4, align 8
  %23 = call ptr @shm_toc_lookup(ptr noundef %22, i64 noundef -6917529027641081855, i1 noundef zeroext false)
  store ptr %23, ptr %8, align 8
  %24 = load ptr, ptr %8, align 8
  %25 = getelementptr inbounds nuw %struct.BTShared, ptr %24, i32 0, i32 4
  %26 = load i8, ptr %25, align 2, !range !4, !noundef !5
  %27 = trunc i8 %26 to i1
  br i1 %27, label %29, label %28

28:                                               ; preds = %2
  store i32 5, ptr %13, align 4
  store i32 8, ptr %14, align 4
  br label %30

29:                                               ; preds = %2
  store i32 4, ptr %13, align 4
  store i32 3, ptr %14, align 4
  br label %30

30:                                               ; preds = %29, %28
  %31 = load ptr, ptr %8, align 8
  %32 = getelementptr inbounds nuw %struct.BTShared, ptr %31, i32 0, i32 6
  %33 = load i64, ptr %32, align 8
  call void @pgstat_report_query_id(i64 noundef %33, i1 noundef zeroext false)
  %34 = load ptr, ptr %8, align 8
  %35 = getelementptr inbounds nuw %struct.BTShared, ptr %34, i32 0, i32 0
  %36 = load i32, ptr %35, align 8
  %37 = load i32, ptr %13, align 4
  %38 = call ptr @table_open(i32 noundef %36, i32 noundef %37)
  store ptr %38, ptr %11, align 8
  %39 = load ptr, ptr %8, align 8
  %40 = getelementptr inbounds nuw %struct.BTShared, ptr %39, i32 0, i32 1
  %41 = load i32, ptr %40, align 4
  %42 = load i32, ptr %14, align 4
  %43 = call ptr @index_open(i32 noundef %41, i32 noundef %42)
  store ptr %43, ptr %12, align 8
  %44 = call ptr @palloc0(i64 noundef 32)
  store ptr %44, ptr %6, align 8
  %45 = load ptr, ptr %11, align 8
  %46 = load ptr, ptr %6, align 8
  %47 = getelementptr inbounds nuw %struct.BTSpool, ptr %46, i32 0, i32 1
  store ptr %45, ptr %47, align 8
  %48 = load ptr, ptr %12, align 8
  %49 = load ptr, ptr %6, align 8
  %50 = getelementptr inbounds nuw %struct.BTSpool, ptr %49, i32 0, i32 2
  store ptr %48, ptr %50, align 8
  %51 = load ptr, ptr %8, align 8
  %52 = getelementptr inbounds nuw %struct.BTShared, ptr %51, i32 0, i32 2
  %53 = load i8, ptr %52, align 8, !range !4, !noundef !5
  %54 = trunc i8 %53 to i1
  %55 = load ptr, ptr %6, align 8
  %56 = getelementptr inbounds nuw %struct.BTSpool, ptr %55, i32 0, i32 3
  %57 = zext i1 %54 to i8
  store i8 %57, ptr %56, align 8
  %58 = load ptr, ptr %8, align 8
  %59 = getelementptr inbounds nuw %struct.BTShared, ptr %58, i32 0, i32 3
  %60 = load i8, ptr %59, align 1, !range !4, !noundef !5
  %61 = trunc i8 %60 to i1
  %62 = load ptr, ptr %6, align 8
  %63 = getelementptr inbounds nuw %struct.BTSpool, ptr %62, i32 0, i32 4
  %64 = zext i1 %61 to i8
  store i8 %64, ptr %63, align 1
  %65 = load ptr, ptr %4, align 8
  %66 = call ptr @shm_toc_lookup(ptr noundef %65, i64 noundef -6917529027641081854, i1 noundef zeroext false)
  store ptr %66, ptr %9, align 8
  %67 = load ptr, ptr %9, align 8
  %68 = load ptr, ptr %3, align 8
  call void @tuplesort_attach_shared(ptr noundef %67, ptr noundef %68)
  %69 = load ptr, ptr %8, align 8
  %70 = getelementptr inbounds nuw %struct.BTShared, ptr %69, i32 0, i32 2
  %71 = load i8, ptr %70, align 8, !range !4, !noundef !5
  %72 = trunc i8 %71 to i1
  br i1 %72, label %74, label %73

73:                                               ; preds = %30
  store ptr null, ptr %7, align 8
  store ptr null, ptr %10, align 8
  br label %92

74:                                               ; preds = %30
  %75 = call ptr @palloc0(i64 noundef 32)
  store ptr %75, ptr %7, align 8
  %76 = load ptr, ptr %6, align 8
  %77 = getelementptr inbounds nuw %struct.BTSpool, ptr %76, i32 0, i32 1
  %78 = load ptr, ptr %77, align 8
  %79 = load ptr, ptr %7, align 8
  %80 = getelementptr inbounds nuw %struct.BTSpool, ptr %79, i32 0, i32 1
  store ptr %78, ptr %80, align 8
  %81 = load ptr, ptr %6, align 8
  %82 = getelementptr inbounds nuw %struct.BTSpool, ptr %81, i32 0, i32 2
  %83 = load ptr, ptr %82, align 8
  %84 = load ptr, ptr %7, align 8
  %85 = getelementptr inbounds nuw %struct.BTSpool, ptr %84, i32 0, i32 2
  store ptr %83, ptr %85, align 8
  %86 = load ptr, ptr %7, align 8
  %87 = getelementptr inbounds nuw %struct.BTSpool, ptr %86, i32 0, i32 3
  store i8 0, ptr %87, align 8
  %88 = load ptr, ptr %4, align 8
  %89 = call ptr @shm_toc_lookup(ptr noundef %88, i64 noundef -6917529027641081853, i1 noundef zeroext false)
  store ptr %89, ptr %10, align 8
  %90 = load ptr, ptr %10, align 8
  %91 = load ptr, ptr %3, align 8
  call void @tuplesort_attach_shared(ptr noundef %90, ptr noundef %91)
  br label %92

92:                                               ; preds = %74, %73
  call void @InstrStartParallelQuery()
  %93 = load i32, ptr @maintenance_work_mem, align 4
  %94 = load ptr, ptr %8, align 8
  %95 = getelementptr inbounds nuw %struct.BTShared, ptr %94, i32 0, i32 5
  %96 = load i32, ptr %95, align 4
  %97 = sdiv i32 %93, %96
  store i32 %97, ptr %17, align 4
  %98 = load ptr, ptr %6, align 8
  %99 = load ptr, ptr %7, align 8
  %100 = load ptr, ptr %8, align 8
  %101 = load ptr, ptr %9, align 8
  %102 = load ptr, ptr %10, align 8
  %103 = load i32, ptr %17, align 4
  call void @_bt_parallel_scan_and_sort(ptr noundef %98, ptr noundef %99, ptr noundef %100, ptr noundef %101, ptr noundef %102, i32 noundef %103, i1 noundef zeroext false)
  %104 = load ptr, ptr %4, align 8
  %105 = call ptr @shm_toc_lookup(ptr noundef %104, i64 noundef -6917529027641081850, i1 noundef zeroext false)
  store ptr %105, ptr %16, align 8
  %106 = load ptr, ptr %4, align 8
  %107 = call ptr @shm_toc_lookup(ptr noundef %106, i64 noundef -6917529027641081851, i1 noundef zeroext false)
  store ptr %107, ptr %15, align 8
  %108 = load ptr, ptr %16, align 8
  %109 = load i32, ptr @ParallelWorkerNumber, align 4
  %110 = sext i32 %109 to i64
  %111 = getelementptr inbounds %struct.BufferUsage, ptr %108, i64 %110
  %112 = load ptr, ptr %15, align 8
  %113 = load i32, ptr @ParallelWorkerNumber, align 4
  %114 = sext i32 %113 to i64
  %115 = getelementptr inbounds %struct.WalUsage, ptr %112, i64 %114
  call void @InstrEndParallelQuery(ptr noundef %111, ptr noundef %115)
  %116 = load ptr, ptr %12, align 8
  %117 = load i32, ptr %14, align 4
  call void @index_close(ptr noundef %116, i32 noundef %117)
  %118 = load ptr, ptr %11, align 8
  %119 = load i32, ptr %13, align 4
  call void @table_close(ptr noundef %118, i32 noundef %119)
  call void @llvm.lifetime.end.p0(i64 4, ptr %17) #8
  call void @llvm.lifetime.end.p0(i64 8, ptr %16) #8
  call void @llvm.lifetime.end.p0(i64 8, ptr %15) #8
  call void @llvm.lifetime.end.p0(i64 4, ptr %14) #8
  call void @llvm.lifetime.end.p0(i64 4, ptr %13) #8
  call void @llvm.lifetime.end.p0(i64 8, ptr %12) #8
  call void @llvm.lifetime.end.p0(i64 8, ptr %11) #8
  call void @llvm.lifetime.end.p0(i64 8, ptr %10) #8
  call void @llvm.lifetime.end.p0(i64 8, ptr %9) #8
  call void @llvm.lifetime.end.p0(i64 8, ptr %8) #8
  call void @llvm.lifetime.end.p0(i64 8, ptr %7) #8
  call void @llvm.lifetime.end.p0(i64 8, ptr %6) #8
  call void @llvm.lifetime.end.p0(i64 8, ptr %5) #8
  ret void
}