; Function Attrs: nounwind uwtable
define dso_local void @_bt_parallel_build_main(ptr noundef %0, ptr noundef %1) local_unnamed_addr #0 {
  %3 = tail call ptr @shm_toc_lookup(ptr noundef %1, i64 noundef -6917529027641081852, i1 noundef zeroext true) #10
  store ptr %3, ptr @debug_query_string, align 8
  tail call void @pgstat_report_activity(i32 noundef 2, ptr noundef %3) #10
  %4 = tail call ptr @shm_toc_lookup(ptr noundef %1, i64 noundef -6917529027641081855, i1 noundef zeroext false) #10
  %5 = getelementptr inbounds nuw i8, ptr %4, i64 10
  %6 = load i8, ptr %5, align 2, !range !4, !noundef !5
  %7 = trunc nuw i8 %6 to i1
  %. = select i1 %7, i32 3, i32 8
  %.46 = select i1 %7, i32 4, i32 5
  %8 = getelementptr inbounds nuw i8, ptr %4, i64 16
  %9 = load i64, ptr %8, align 8
  tail call void @pgstat_report_query_id(i64 noundef %9, i1 noundef zeroext false) #10
  %10 = load i32, ptr %4, align 8
  %11 = tail call ptr @table_open(i32 noundef %10, i32 noundef %.46) #10
  %12 = getelementptr inbounds nuw i8, ptr %4, i64 4
  %13 = load i32, ptr %12, align 4
  %14 = tail call ptr @index_open(i32 noundef %13, i32 noundef %.) #10
  %15 = tail call ptr @palloc0(i64 noundef 32) #10
  %16 = getelementptr inbounds nuw i8, ptr %15, i64 8
  store ptr %11, ptr %16, align 8
  %17 = getelementptr inbounds nuw i8, ptr %15, i64 16
  store ptr %14, ptr %17, align 8
  %18 = getelementptr inbounds nuw i8, ptr %4, i64 8
  %19 = load i8, ptr %18, align 8, !range !4, !noundef !5
  %20 = getelementptr inbounds nuw i8, ptr %15, i64 24
  store i8 %19, ptr %20, align 8
  %21 = getelementptr inbounds nuw i8, ptr %4, i64 9
  %22 = load i8, ptr %21, align 1, !range !4, !noundef !5
  %23 = getelementptr inbounds nuw i8, ptr %15, i64 25
  store i8 %22, ptr %23, align 1
  %24 = tail call ptr @shm_toc_lookup(ptr noundef %1, i64 noundef -6917529027641081854, i1 noundef zeroext false) #10
  tail call void @tuplesort_attach_shared(ptr noundef %24, ptr noundef %0) #10
  %25 = load i8, ptr %18, align 8, !range !4, !noundef !5
  %26 = trunc nuw i8 %25 to i1
  br i1 %26, label %27, label %35

27:                                               ; preds = %2
  %28 = tail call ptr @palloc0(i64 noundef 32) #10
  %29 = load ptr, ptr %16, align 8
  %30 = getelementptr inbounds nuw i8, ptr %28, i64 8
  store ptr %29, ptr %30, align 8
  %31 = load ptr, ptr %17, align 8
  %32 = getelementptr inbounds nuw i8, ptr %28, i64 16
  store ptr %31, ptr %32, align 8
  %33 = getelementptr inbounds nuw i8, ptr %28, i64 24
  store i8 0, ptr %33, align 8
  %34 = tail call ptr @shm_toc_lookup(ptr noundef %1, i64 noundef -6917529027641081853, i1 noundef zeroext false) #10
  tail call void @tuplesort_attach_shared(ptr noundef %34, ptr noundef %0) #10
  br label %35

35:                                               ; preds = %2, %27
  %.043 = phi ptr [ %34, %27 ], [ null, %2 ]
  %.0 = phi ptr [ %28, %27 ], [ null, %2 ]
  tail call void @InstrStartParallelQuery() #10
  %36 = load i32, ptr @maintenance_work_mem, align 4
  %37 = getelementptr inbounds nuw i8, ptr %4, i64 12
  %38 = load i32, ptr %37, align 4
  %39 = sdiv i32 %36, %38
  tail call fastcc void @_bt_parallel_scan_and_sort(ptr noundef nonnull %15, ptr noundef %.0, ptr noundef nonnull %4, ptr noundef %24, ptr noundef %.043, i32 noundef %39, i1 noundef zeroext false)
  %40 = tail call ptr @shm_toc_lookup(ptr noundef %1, i64 noundef -6917529027641081850, i1 noundef zeroext false) #10
  %41 = tail call ptr @shm_toc_lookup(ptr noundef %1, i64 noundef -6917529027641081851, i1 noundef zeroext false) #10
  %42 = load i32, ptr @ParallelWorkerNumber, align 4
  %43 = sext i32 %42 to i64
  %44 = getelementptr inbounds %struct.BufferUsage, ptr %40, i64 %43
  %45 = getelementptr inbounds %struct.WalUsage, ptr %41, i64 %43
  tail call void @InstrEndParallelQuery(ptr noundef %44, ptr noundef %45) #10
  tail call void @index_close(ptr noundef %14, i32 noundef %.) #10
  tail call void @table_close(ptr noundef %11, i32 noundef %.46) #10
  ret void
}